
add:     file format elf32-i386


Disassembly of section .init:

08048338 <_init>:
 8048338:	53                   	push   ebx
 8048339:	83 ec 08             	sub    esp,0x8
 804833c:	e8 af 00 00 00       	call   80483f0 <__x86.get_pc_thunk.bx>
 8048341:	81 c3 bf 1c 00 00    	add    ebx,0x1cbf
 8048347:	8b 83 fc ff ff ff    	mov    eax,DWORD PTR [ebx-0x4]
 804834d:	85 c0                	test   eax,eax
 804834f:	74 05                	je     8048356 <_init+0x1e>
 8048351:	e8 5a 00 00 00       	call   80483b0 <atoi@plt+0x10>
 8048356:	83 c4 08             	add    esp,0x8
 8048359:	5b                   	pop    ebx
 804835a:	c3                   	ret    

Disassembly of section .plt:

08048360 <exit@plt-0x10>:
 8048360:	ff 35 04 a0 04 08    	push   DWORD PTR ds:0x804a004
 8048366:	ff 25 08 a0 04 08    	jmp    DWORD PTR ds:0x804a008
 804836c:	00 00                	add    BYTE PTR [eax],al
	...

08048370 <exit@plt>:
 8048370:	ff 25 0c a0 04 08    	jmp    DWORD PTR ds:0x804a00c
 8048376:	68 00 00 00 00       	push   0x0
 804837b:	e9 e0 ff ff ff       	jmp    8048360 <_init+0x28>

08048380 <__libc_start_main@plt>:
 8048380:	ff 25 10 a0 04 08    	jmp    DWORD PTR ds:0x804a010
 8048386:	68 08 00 00 00       	push   0x8
 804838b:	e9 d0 ff ff ff       	jmp    8048360 <_init+0x28>

08048390 <fprintf@plt>:
 8048390:	ff 25 14 a0 04 08    	jmp    DWORD PTR ds:0x804a014
 8048396:	68 10 00 00 00       	push   0x10
 804839b:	e9 c0 ff ff ff       	jmp    8048360 <_init+0x28>

080483a0 <atoi@plt>:
 80483a0:	ff 25 18 a0 04 08    	jmp    DWORD PTR ds:0x804a018
 80483a6:	68 18 00 00 00       	push   0x18
 80483ab:	e9 b0 ff ff ff       	jmp    8048360 <_init+0x28>

Disassembly of section .plt.got:

080483b0 <.plt.got>:
 80483b0:	ff 25 fc 9f 04 08    	jmp    DWORD PTR ds:0x8049ffc
 80483b6:	66 90                	xchg   ax,ax

Disassembly of section .text:

080483c0 <_start>:
 80483c0:	31 ed                	xor    ebp,ebp
 80483c2:	5e                   	pop    esi
 80483c3:	89 e1                	mov    ecx,esp
 80483c5:	83 e4 f0             	and    esp,0xfffffff0
 80483c8:	50                   	push   eax
 80483c9:	54                   	push   esp
 80483ca:	52                   	push   edx
 80483cb:	68 50 86 04 08       	push   0x8048650
 80483d0:	68 f0 85 04 08       	push   0x80485f0
 80483d5:	51                   	push   ecx
 80483d6:	56                   	push   esi
 80483d7:	68 15 85 04 08       	push   0x8048515
 80483dc:	e8 9f ff ff ff       	call   8048380 <__libc_start_main@plt>
 80483e1:	f4                   	hlt    
 80483e2:	66 90                	xchg   ax,ax
 80483e4:	66 90                	xchg   ax,ax
 80483e6:	66 90                	xchg   ax,ax
 80483e8:	66 90                	xchg   ax,ax
 80483ea:	66 90                	xchg   ax,ax
 80483ec:	66 90                	xchg   ax,ax
 80483ee:	66 90                	xchg   ax,ax

080483f0 <__x86.get_pc_thunk.bx>:
 80483f0:	8b 1c 24             	mov    ebx,DWORD PTR [esp]
 80483f3:	c3                   	ret    
 80483f4:	66 90                	xchg   ax,ax
 80483f6:	66 90                	xchg   ax,ax
 80483f8:	66 90                	xchg   ax,ax
 80483fa:	66 90                	xchg   ax,ax
 80483fc:	66 90                	xchg   ax,ax
 80483fe:	66 90                	xchg   ax,ax

08048400 <deregister_tm_clones>:
 8048400:	b8 27 a0 04 08       	mov    eax,0x804a027
 8048405:	2d 24 a0 04 08       	sub    eax,0x804a024
 804840a:	83 f8 06             	cmp    eax,0x6
 804840d:	76 1a                	jbe    8048429 <deregister_tm_clones+0x29>
 804840f:	b8 00 00 00 00       	mov    eax,0x0
 8048414:	85 c0                	test   eax,eax
 8048416:	74 11                	je     8048429 <deregister_tm_clones+0x29>
 8048418:	55                   	push   ebp
 8048419:	89 e5                	mov    ebp,esp
 804841b:	83 ec 14             	sub    esp,0x14
 804841e:	68 24 a0 04 08       	push   0x804a024
 8048423:	ff d0                	call   eax
 8048425:	83 c4 10             	add    esp,0x10
 8048428:	c9                   	leave  
 8048429:	f3 c3                	repz ret 
 804842b:	90                   	nop
 804842c:	8d 74 26 00          	lea    esi,[esi+eiz*1+0x0]

08048430 <register_tm_clones>:
 8048430:	b8 24 a0 04 08       	mov    eax,0x804a024
 8048435:	2d 24 a0 04 08       	sub    eax,0x804a024
 804843a:	c1 f8 02             	sar    eax,0x2
 804843d:	89 c2                	mov    edx,eax
 804843f:	c1 ea 1f             	shr    edx,0x1f
 8048442:	01 d0                	add    eax,edx
 8048444:	d1 f8                	sar    eax,1
 8048446:	74 1b                	je     8048463 <register_tm_clones+0x33>
 8048448:	ba 00 00 00 00       	mov    edx,0x0
 804844d:	85 d2                	test   edx,edx
 804844f:	74 12                	je     8048463 <register_tm_clones+0x33>
 8048451:	55                   	push   ebp
 8048452:	89 e5                	mov    ebp,esp
 8048454:	83 ec 10             	sub    esp,0x10
 8048457:	50                   	push   eax
 8048458:	68 24 a0 04 08       	push   0x804a024
 804845d:	ff d2                	call   edx
 804845f:	83 c4 10             	add    esp,0x10
 8048462:	c9                   	leave  
 8048463:	f3 c3                	repz ret 
 8048465:	8d 74 26 00          	lea    esi,[esi+eiz*1+0x0]
 8048469:	8d bc 27 00 00 00 00 	lea    edi,[edi+eiz*1+0x0]

08048470 <__do_global_dtors_aux>:
 8048470:	80 3d 30 a0 04 08 00 	cmp    BYTE PTR ds:0x804a030,0x0
 8048477:	75 13                	jne    804848c <__do_global_dtors_aux+0x1c>
 8048479:	55                   	push   ebp
 804847a:	89 e5                	mov    ebp,esp
 804847c:	83 ec 08             	sub    esp,0x8
 804847f:	e8 7c ff ff ff       	call   8048400 <deregister_tm_clones>
 8048484:	c6 05 30 a0 04 08 01 	mov    BYTE PTR ds:0x804a030,0x1
 804848b:	c9                   	leave  
 804848c:	f3 c3                	repz ret 
 804848e:	66 90                	xchg   ax,ax

08048490 <frame_dummy>:
 8048490:	b8 10 9f 04 08       	mov    eax,0x8049f10
 8048495:	8b 10                	mov    edx,DWORD PTR [eax]
 8048497:	85 d2                	test   edx,edx
 8048499:	75 05                	jne    80484a0 <frame_dummy+0x10>
 804849b:	eb 93                	jmp    8048430 <register_tm_clones>
 804849d:	8d 76 00             	lea    esi,[esi+0x0]
 80484a0:	ba 00 00 00 00       	mov    edx,0x0
 80484a5:	85 d2                	test   edx,edx
 80484a7:	74 f2                	je     804849b <frame_dummy+0xb>
 80484a9:	55                   	push   ebp
 80484aa:	89 e5                	mov    ebp,esp
 80484ac:	83 ec 14             	sub    esp,0x14
 80484af:	50                   	push   eax
 80484b0:	ff d2                	call   edx
 80484b2:	83 c4 10             	add    esp,0x10
 80484b5:	c9                   	leave  
 80484b6:	e9 75 ff ff ff       	jmp    8048430 <register_tm_clones>

080484bb <add>:
 80484bb:	55                   	push   ebp
 80484bc:	89 e5                	mov    ebp,esp
 80484be:	83 ec 10             	sub    esp,0x10
 80484c1:	83 7d 0c 00          	cmp    DWORD PTR [ebp+0xc],0x0
 80484c5:	74 17                	je     80484de <add+0x23>
 80484c7:	8b 45 0c             	mov    eax,DWORD PTR [ebp+0xc]
 80484ca:	c1 f8 1f             	sar    eax,0x1f
 80484cd:	89 c2                	mov    edx,eax
 80484cf:	33 55 0c             	xor    edx,DWORD PTR [ebp+0xc]
 80484d2:	89 d1                	mov    ecx,edx
 80484d4:	29 c1                	sub    ecx,eax
 80484d6:	8b 45 0c             	mov    eax,DWORD PTR [ebp+0xc]
 80484d9:	99                   	cdq    
 80484da:	f7 f9                	idiv   ecx
 80484dc:	eb 05                	jmp    80484e3 <add+0x28>
 80484de:	b8 00 00 00 00       	mov    eax,0x0
 80484e3:	89 45 f4             	mov    DWORD PTR [ebp-0xc],eax
 80484e6:	8b 45 08             	mov    eax,DWORD PTR [ebp+0x8]
 80484e9:	89 45 fc             	mov    DWORD PTR [ebp-0x4],eax
 80484ec:	8b 45 0c             	mov    eax,DWORD PTR [ebp+0xc]
 80484ef:	c1 f8 1f             	sar    eax,0x1f
 80484f2:	89 c2                	mov    edx,eax
 80484f4:	33 55 0c             	xor    edx,DWORD PTR [ebp+0xc]
 80484f7:	29 c2                	sub    edx,eax
 80484f9:	89 d0                	mov    eax,edx
 80484fb:	89 45 f8             	mov    DWORD PTR [ebp-0x8],eax
 80484fe:	eb 0a                	jmp    804850a <add+0x4f>
 8048500:	8b 45 f4             	mov    eax,DWORD PTR [ebp-0xc]
 8048503:	01 45 fc             	add    DWORD PTR [ebp-0x4],eax
 8048506:	83 6d f8 01          	sub    DWORD PTR [ebp-0x8],0x1
 804850a:	83 7d f8 00          	cmp    DWORD PTR [ebp-0x8],0x0
 804850e:	75 f0                	jne    8048500 <add+0x45>
 8048510:	8b 45 fc             	mov    eax,DWORD PTR [ebp-0x4]
 8048513:	c9                   	leave  
 8048514:	c3                   	ret    

08048515 <main>:
 8048515:	8d 4c 24 04          	lea    ecx,[esp+0x4]
 8048519:	83 e4 f0             	and    esp,0xfffffff0
 804851c:	ff 71 fc             	push   DWORD PTR [ecx-0x4]
 804851f:	55                   	push   ebp
 8048520:	89 e5                	mov    ebp,esp
 8048522:	57                   	push   edi
 8048523:	56                   	push   esi
 8048524:	53                   	push   ebx
 8048525:	51                   	push   ecx
 8048526:	83 ec 08             	sub    esp,0x8
 8048529:	89 cb                	mov    ebx,ecx
 804852b:	83 3b 03             	cmp    DWORD PTR [ebx],0x3
 804852e:	74 26                	je     8048556 <main+0x41>
 8048530:	8b 43 04             	mov    eax,DWORD PTR [ebx+0x4]
 8048533:	8b 10                	mov    edx,DWORD PTR [eax]
 8048535:	a1 28 a0 04 08       	mov    eax,ds:0x804a028
 804853a:	83 ec 04             	sub    esp,0x4
 804853d:	52                   	push   edx
 804853e:	68 70 86 04 08       	push   0x8048670
 8048543:	50                   	push   eax
 8048544:	e8 47 fe ff ff       	call   8048390 <fprintf@plt>
 8048549:	83 c4 10             	add    esp,0x10
 804854c:	83 ec 0c             	sub    esp,0xc
 804854f:	6a 01                	push   0x1
 8048551:	e8 1a fe ff ff       	call   8048370 <exit@plt>
 8048556:	8b 43 04             	mov    eax,DWORD PTR [ebx+0x4]
 8048559:	83 c0 08             	add    eax,0x8
 804855c:	8b 00                	mov    eax,DWORD PTR [eax]
 804855e:	83 ec 0c             	sub    esp,0xc
 8048561:	50                   	push   eax
 8048562:	e8 39 fe ff ff       	call   80483a0 <atoi@plt>
 8048567:	83 c4 10             	add    esp,0x10
 804856a:	89 c6                	mov    esi,eax
 804856c:	8b 43 04             	mov    eax,DWORD PTR [ebx+0x4]
 804856f:	83 c0 04             	add    eax,0x4
 8048572:	8b 00                	mov    eax,DWORD PTR [eax]
 8048574:	83 ec 0c             	sub    esp,0xc
 8048577:	50                   	push   eax
 8048578:	e8 23 fe ff ff       	call   80483a0 <atoi@plt>
 804857d:	83 c4 10             	add    esp,0x10
 8048580:	83 ec 08             	sub    esp,0x8
 8048583:	56                   	push   esi
 8048584:	50                   	push   eax
 8048585:	e8 31 ff ff ff       	call   80484bb <add>
 804858a:	83 c4 10             	add    esp,0x10
 804858d:	89 c7                	mov    edi,eax
 804858f:	8b 43 04             	mov    eax,DWORD PTR [ebx+0x4]
 8048592:	83 c0 08             	add    eax,0x8
 8048595:	8b 00                	mov    eax,DWORD PTR [eax]
 8048597:	83 ec 0c             	sub    esp,0xc
 804859a:	50                   	push   eax
 804859b:	e8 00 fe ff ff       	call   80483a0 <atoi@plt>
 80485a0:	83 c4 10             	add    esp,0x10
 80485a3:	89 c6                	mov    esi,eax
 80485a5:	8b 43 04             	mov    eax,DWORD PTR [ebx+0x4]
 80485a8:	83 c0 04             	add    eax,0x4
 80485ab:	8b 00                	mov    eax,DWORD PTR [eax]
 80485ad:	83 ec 0c             	sub    esp,0xc
 80485b0:	50                   	push   eax
 80485b1:	e8 ea fd ff ff       	call   80483a0 <atoi@plt>
 80485b6:	83 c4 10             	add    esp,0x10
 80485b9:	89 c2                	mov    edx,eax
 80485bb:	a1 2c a0 04 08       	mov    eax,ds:0x804a02c
 80485c0:	83 ec 0c             	sub    esp,0xc
 80485c3:	57                   	push   edi
 80485c4:	56                   	push   esi
 80485c5:	52                   	push   edx
 80485c6:	68 98 86 04 08       	push   0x8048698
 80485cb:	50                   	push   eax
 80485cc:	e8 bf fd ff ff       	call   8048390 <fprintf@plt>
 80485d1:	83 c4 20             	add    esp,0x20
 80485d4:	b8 00 00 00 00       	mov    eax,0x0
 80485d9:	8d 65 f0             	lea    esp,[ebp-0x10]
 80485dc:	59                   	pop    ecx
 80485dd:	5b                   	pop    ebx
 80485de:	5e                   	pop    esi
 80485df:	5f                   	pop    edi
 80485e0:	5d                   	pop    ebp
 80485e1:	8d 61 fc             	lea    esp,[ecx-0x4]
 80485e4:	c3                   	ret    
 80485e5:	66 90                	xchg   ax,ax
 80485e7:	66 90                	xchg   ax,ax
 80485e9:	66 90                	xchg   ax,ax
 80485eb:	66 90                	xchg   ax,ax
 80485ed:	66 90                	xchg   ax,ax
 80485ef:	90                   	nop

080485f0 <__libc_csu_init>:
 80485f0:	55                   	push   ebp
 80485f1:	57                   	push   edi
 80485f2:	56                   	push   esi
 80485f3:	53                   	push   ebx
 80485f4:	e8 f7 fd ff ff       	call   80483f0 <__x86.get_pc_thunk.bx>
 80485f9:	81 c3 07 1a 00 00    	add    ebx,0x1a07
 80485ff:	83 ec 0c             	sub    esp,0xc
 8048602:	8b 6c 24 20          	mov    ebp,DWORD PTR [esp+0x20]
 8048606:	8d b3 0c ff ff ff    	lea    esi,[ebx-0xf4]
 804860c:	e8 27 fd ff ff       	call   8048338 <_init>
 8048611:	8d 83 08 ff ff ff    	lea    eax,[ebx-0xf8]
 8048617:	29 c6                	sub    esi,eax
 8048619:	c1 fe 02             	sar    esi,0x2
 804861c:	85 f6                	test   esi,esi
 804861e:	74 25                	je     8048645 <__libc_csu_init+0x55>
 8048620:	31 ff                	xor    edi,edi
 8048622:	8d b6 00 00 00 00    	lea    esi,[esi+0x0]
 8048628:	83 ec 04             	sub    esp,0x4
 804862b:	ff 74 24 2c          	push   DWORD PTR [esp+0x2c]
 804862f:	ff 74 24 2c          	push   DWORD PTR [esp+0x2c]
 8048633:	55                   	push   ebp
 8048634:	ff 94 bb 08 ff ff ff 	call   DWORD PTR [ebx+edi*4-0xf8]
 804863b:	83 c7 01             	add    edi,0x1
 804863e:	83 c4 10             	add    esp,0x10
 8048641:	39 f7                	cmp    edi,esi
 8048643:	75 e3                	jne    8048628 <__libc_csu_init+0x38>
 8048645:	83 c4 0c             	add    esp,0xc
 8048648:	5b                   	pop    ebx
 8048649:	5e                   	pop    esi
 804864a:	5f                   	pop    edi
 804864b:	5d                   	pop    ebp
 804864c:	c3                   	ret    
 804864d:	8d 76 00             	lea    esi,[esi+0x0]

08048650 <__libc_csu_fini>:
 8048650:	f3 c3                	repz ret 

Disassembly of section .fini:

08048654 <_fini>:
 8048654:	53                   	push   ebx
 8048655:	83 ec 08             	sub    esp,0x8
 8048658:	e8 93 fd ff ff       	call   80483f0 <__x86.get_pc_thunk.bx>
 804865d:	81 c3 a3 19 00 00    	add    ebx,0x19a3
 8048663:	83 c4 08             	add    esp,0x8
 8048666:	5b                   	pop    ebx
 8048667:	c3                   	ret    
