
crackme:     file format elf32-i386


Disassembly of section .init:

08048310 <_init>:
 8048310:	53                   	push   ebx
 8048311:	83 ec 08             	sub    esp,0x8
 8048314:	e8 b7 00 00 00       	call   80483d0 <__x86.get_pc_thunk.bx>
 8048319:	81 c3 e7 1c 00 00    	add    ebx,0x1ce7
 804831f:	8b 83 fc ff ff ff    	mov    eax,DWORD PTR [ebx-0x4]
 8048325:	85 c0                	test   eax,eax
 8048327:	74 05                	je     804832e <_init+0x1e>
 8048329:	e8 62 00 00 00       	call   8048390 <strncmp@plt+0x10>
 804832e:	83 c4 08             	add    esp,0x8
 8048331:	5b                   	pop    ebx
 8048332:	c3                   	ret    

Disassembly of section .plt:

08048340 <puts@plt-0x10>:
 8048340:	ff 35 04 a0 04 08    	push   DWORD PTR ds:0x804a004
 8048346:	ff 25 08 a0 04 08    	jmp    DWORD PTR ds:0x804a008
 804834c:	00 00                	add    BYTE PTR [eax],al
	...

08048350 <puts@plt>:
 8048350:	ff 25 0c a0 04 08    	jmp    DWORD PTR ds:0x804a00c
 8048356:	68 00 00 00 00       	push   0x0
 804835b:	e9 e0 ff ff ff       	jmp    8048340 <_init+0x30>

08048360 <__libc_start_main@plt>:
 8048360:	ff 25 10 a0 04 08    	jmp    DWORD PTR ds:0x804a010
 8048366:	68 08 00 00 00       	push   0x8
 804836b:	e9 d0 ff ff ff       	jmp    8048340 <_init+0x30>

08048370 <__isoc99_scanf@plt>:
 8048370:	ff 25 14 a0 04 08    	jmp    DWORD PTR ds:0x804a014
 8048376:	68 10 00 00 00       	push   0x10
 804837b:	e9 c0 ff ff ff       	jmp    8048340 <_init+0x30>

08048380 <strncmp@plt>:
 8048380:	ff 25 18 a0 04 08    	jmp    DWORD PTR ds:0x804a018
 8048386:	68 18 00 00 00       	push   0x18
 804838b:	e9 b0 ff ff ff       	jmp    8048340 <_init+0x30>

Disassembly of section .plt.got:

08048390 <.plt.got>:
 8048390:	ff 25 fc 9f 04 08    	jmp    DWORD PTR ds:0x8049ffc
 8048396:	66 90                	xchg   ax,ax

Disassembly of section .text:

080483a0 <_start>:
 80483a0:	31 ed                	xor    ebp,ebp
 80483a2:	5e                   	pop    esi
 80483a3:	89 e1                	mov    ecx,esp
 80483a5:	83 e4 f0             	and    esp,0xfffffff0
 80483a8:	50                   	push   eax
 80483a9:	54                   	push   esp
 80483aa:	52                   	push   edx
 80483ab:	68 80 85 04 08       	push   0x8048580
 80483b0:	68 20 85 04 08       	push   0x8048520
 80483b5:	51                   	push   ecx
 80483b6:	56                   	push   esi
 80483b7:	68 9b 84 04 08       	push   0x804849b
 80483bc:	e8 9f ff ff ff       	call   8048360 <__libc_start_main@plt>
 80483c1:	f4                   	hlt    
 80483c2:	66 90                	xchg   ax,ax
 80483c4:	66 90                	xchg   ax,ax
 80483c6:	66 90                	xchg   ax,ax
 80483c8:	66 90                	xchg   ax,ax
 80483ca:	66 90                	xchg   ax,ax
 80483cc:	66 90                	xchg   ax,ax
 80483ce:	66 90                	xchg   ax,ax

080483d0 <__x86.get_pc_thunk.bx>:
 80483d0:	8b 1c 24             	mov    ebx,DWORD PTR [esp]
 80483d3:	c3                   	ret    
 80483d4:	66 90                	xchg   ax,ax
 80483d6:	66 90                	xchg   ax,ax
 80483d8:	66 90                	xchg   ax,ax
 80483da:	66 90                	xchg   ax,ax
 80483dc:	66 90                	xchg   ax,ax
 80483de:	66 90                	xchg   ax,ax

080483e0 <deregister_tm_clones>:
 80483e0:	b8 27 a0 04 08       	mov    eax,0x804a027
 80483e5:	2d 24 a0 04 08       	sub    eax,0x804a024
 80483ea:	83 f8 06             	cmp    eax,0x6
 80483ed:	76 1a                	jbe    8048409 <deregister_tm_clones+0x29>
 80483ef:	b8 00 00 00 00       	mov    eax,0x0
 80483f4:	85 c0                	test   eax,eax
 80483f6:	74 11                	je     8048409 <deregister_tm_clones+0x29>
 80483f8:	55                   	push   ebp
 80483f9:	89 e5                	mov    ebp,esp
 80483fb:	83 ec 14             	sub    esp,0x14
 80483fe:	68 24 a0 04 08       	push   0x804a024
 8048403:	ff d0                	call   eax
 8048405:	83 c4 10             	add    esp,0x10
 8048408:	c9                   	leave  
 8048409:	f3 c3                	repz ret 
 804840b:	90                   	nop
 804840c:	8d 74 26 00          	lea    esi,[esi+eiz*1+0x0]

08048410 <register_tm_clones>:
 8048410:	b8 24 a0 04 08       	mov    eax,0x804a024
 8048415:	2d 24 a0 04 08       	sub    eax,0x804a024
 804841a:	c1 f8 02             	sar    eax,0x2
 804841d:	89 c2                	mov    edx,eax
 804841f:	c1 ea 1f             	shr    edx,0x1f
 8048422:	01 d0                	add    eax,edx
 8048424:	d1 f8                	sar    eax,1
 8048426:	74 1b                	je     8048443 <register_tm_clones+0x33>
 8048428:	ba 00 00 00 00       	mov    edx,0x0
 804842d:	85 d2                	test   edx,edx
 804842f:	74 12                	je     8048443 <register_tm_clones+0x33>
 8048431:	55                   	push   ebp
 8048432:	89 e5                	mov    ebp,esp
 8048434:	83 ec 10             	sub    esp,0x10
 8048437:	50                   	push   eax
 8048438:	68 24 a0 04 08       	push   0x804a024
 804843d:	ff d2                	call   edx
 804843f:	83 c4 10             	add    esp,0x10
 8048442:	c9                   	leave  
 8048443:	f3 c3                	repz ret 
 8048445:	8d 74 26 00          	lea    esi,[esi+eiz*1+0x0]
 8048449:	8d bc 27 00 00 00 00 	lea    edi,[edi+eiz*1+0x0]

08048450 <__do_global_dtors_aux>:
 8048450:	80 3d 24 a0 04 08 00 	cmp    BYTE PTR ds:0x804a024,0x0
 8048457:	75 13                	jne    804846c <__do_global_dtors_aux+0x1c>
 8048459:	55                   	push   ebp
 804845a:	89 e5                	mov    ebp,esp
 804845c:	83 ec 08             	sub    esp,0x8
 804845f:	e8 7c ff ff ff       	call   80483e0 <deregister_tm_clones>
 8048464:	c6 05 24 a0 04 08 01 	mov    BYTE PTR ds:0x804a024,0x1
 804846b:	c9                   	leave  
 804846c:	f3 c3                	repz ret 
 804846e:	66 90                	xchg   ax,ax

08048470 <frame_dummy>:
 8048470:	b8 10 9f 04 08       	mov    eax,0x8049f10
 8048475:	8b 10                	mov    edx,DWORD PTR [eax]
 8048477:	85 d2                	test   edx,edx
 8048479:	75 05                	jne    8048480 <frame_dummy+0x10>
 804847b:	eb 93                	jmp    8048410 <register_tm_clones>
 804847d:	8d 76 00             	lea    esi,[esi+0x0]
 8048480:	ba 00 00 00 00       	mov    edx,0x0
 8048485:	85 d2                	test   edx,edx
 8048487:	74 f2                	je     804847b <frame_dummy+0xb>
 8048489:	55                   	push   ebp
 804848a:	89 e5                	mov    ebp,esp
 804848c:	83 ec 14             	sub    esp,0x14
 804848f:	50                   	push   eax
 8048490:	ff d2                	call   edx
 8048492:	83 c4 10             	add    esp,0x10
 8048495:	c9                   	leave  
 8048496:	e9 75 ff ff ff       	jmp    8048410 <register_tm_clones>

0804849b <main>:
 804849b:	8d 4c 24 04          	lea    ecx,[esp+0x4]
 804849f:	83 e4 f0             	and    esp,0xfffffff0
 80484a2:	ff 71 fc             	push   DWORD PTR [ecx-0x4]
 80484a5:	55                   	push   ebp
 80484a6:	89 e5                	mov    ebp,esp
 80484a8:	51                   	push   ecx
 80484a9:	83 ec 24             	sub    esp,0x24
 80484ac:	83 ec 0c             	sub    esp,0xc
 80484af:	68 a0 85 04 08       	push   0x80485a0
 80484b4:	e8 97 fe ff ff       	call   8048350 <puts@plt>
 80484b9:	83 c4 10             	add    esp,0x10
 80484bc:	83 ec 08             	sub    esp,0x8
 80484bf:	8d 45 e4             	lea    eax,[ebp-0x1c]
 80484c2:	50                   	push   eax
 80484c3:	68 b0 85 04 08       	push   0x80485b0
 80484c8:	e8 a3 fe ff ff       	call   8048370 <__isoc99_scanf@plt>
 80484cd:	83 c4 10             	add    esp,0x10
 80484d0:	83 ec 04             	sub    esp,0x4
 80484d3:	6a 08                	push   0x8
 80484d5:	68 b3 85 04 08       	push   0x80485b3
 80484da:	8d 45 e4             	lea    eax,[ebp-0x1c]
 80484dd:	50                   	push   eax
 80484de:	e8 9d fe ff ff       	call   8048380 <strncmp@plt>
 80484e3:	83 c4 10             	add    esp,0x10
 80484e6:	85 c0                	test   eax,eax
 80484e8:	75 17                	jne    8048501 <main+0x66>
 80484ea:	83 ec 0c             	sub    esp,0xc
 80484ed:	68 bc 85 04 08       	push   0x80485bc
 80484f2:	e8 59 fe ff ff       	call   8048350 <puts@plt>
 80484f7:	83 c4 10             	add    esp,0x10
 80484fa:	b8 00 00 00 00       	mov    eax,0x0
 80484ff:	eb 15                	jmp    8048516 <main+0x7b>
 8048501:	83 ec 0c             	sub    esp,0xc
 8048504:	68 c7 85 04 08       	push   0x80485c7
 8048509:	e8 42 fe ff ff       	call   8048350 <puts@plt>
 804850e:	83 c4 10             	add    esp,0x10
 8048511:	b8 01 00 00 00       	mov    eax,0x1
 8048516:	8b 4d fc             	mov    ecx,DWORD PTR [ebp-0x4]
 8048519:	c9                   	leave  
 804851a:	8d 61 fc             	lea    esp,[ecx-0x4]
 804851d:	c3                   	ret    
 804851e:	66 90                	xchg   ax,ax

08048520 <__libc_csu_init>:
 8048520:	55                   	push   ebp
 8048521:	57                   	push   edi
 8048522:	56                   	push   esi
 8048523:	53                   	push   ebx
 8048524:	e8 a7 fe ff ff       	call   80483d0 <__x86.get_pc_thunk.bx>
 8048529:	81 c3 d7 1a 00 00    	add    ebx,0x1ad7
 804852f:	83 ec 0c             	sub    esp,0xc
 8048532:	8b 6c 24 20          	mov    ebp,DWORD PTR [esp+0x20]
 8048536:	8d b3 0c ff ff ff    	lea    esi,[ebx-0xf4]
 804853c:	e8 cf fd ff ff       	call   8048310 <_init>
 8048541:	8d 83 08 ff ff ff    	lea    eax,[ebx-0xf8]
 8048547:	29 c6                	sub    esi,eax
 8048549:	c1 fe 02             	sar    esi,0x2
 804854c:	85 f6                	test   esi,esi
 804854e:	74 25                	je     8048575 <__libc_csu_init+0x55>
 8048550:	31 ff                	xor    edi,edi
 8048552:	8d b6 00 00 00 00    	lea    esi,[esi+0x0]
 8048558:	83 ec 04             	sub    esp,0x4
 804855b:	ff 74 24 2c          	push   DWORD PTR [esp+0x2c]
 804855f:	ff 74 24 2c          	push   DWORD PTR [esp+0x2c]
 8048563:	55                   	push   ebp
 8048564:	ff 94 bb 08 ff ff ff 	call   DWORD PTR [ebx+edi*4-0xf8]
 804856b:	83 c7 01             	add    edi,0x1
 804856e:	83 c4 10             	add    esp,0x10
 8048571:	39 f7                	cmp    edi,esi
 8048573:	75 e3                	jne    8048558 <__libc_csu_init+0x38>
 8048575:	83 c4 0c             	add    esp,0xc
 8048578:	5b                   	pop    ebx
 8048579:	5e                   	pop    esi
 804857a:	5f                   	pop    edi
 804857b:	5d                   	pop    ebp
 804857c:	c3                   	ret    
 804857d:	8d 76 00             	lea    esi,[esi+0x0]

08048580 <__libc_csu_fini>:
 8048580:	f3 c3                	repz ret 

Disassembly of section .fini:

08048584 <_fini>:
 8048584:	53                   	push   ebx
 8048585:	83 ec 08             	sub    esp,0x8
 8048588:	e8 43 fe ff ff       	call   80483d0 <__x86.get_pc_thunk.bx>
 804858d:	81 c3 73 1a 00 00    	add    ebx,0x1a73
 8048593:	83 c4 08             	add    esp,0x8
 8048596:	5b                   	pop    ebx
 8048597:	c3                   	ret    
